target datalayout = "e-m:e-p270:32:32-p271:32:32-p272:64:64-i64:64-i128:128-f80:128-n8:16:32:64-S128"
target triple = "x86_64-pc-linux-gnu"

%struct._zend_compiler_globals = type { %struct._zend_stack, ptr, ptr, i32, ptr, ptr, ptr, ptr, i8, i8, i8, i8, i8, %struct._zend_llist, ptr, i8, i8, i8, i8, ptr, i32, i32, %struct._zend_oparray_context, %struct._zend_file_context, ptr, %struct._zend_array, ptr, i64, i8, i8, i8, ptr, ptr, %struct._zend_stack, ptr, i32, ptr, ptr, i64, i64, ptr, ptr, ptr, ptr, i32, %struct._zend_stack }
%struct._zend_llist = type { ptr, ptr, i64, i64, ptr, i8, ptr }
%struct._zend_oparray_context = type { i32, i32, i32, i32, i32, i32, i32, ptr, ptr, i8 }
%struct._zend_file_context = type { %struct._zend_declarables, ptr, i8, i8, ptr, ptr, ptr, %struct._zend_array }
%struct._zend_declarables = type { i64 }
%struct._zend_array = type { %struct._zend_refcounted_h, %union.anon.0, i32, %union.anon.1, i32, i32, i32, i32, i64, ptr }
%struct._zend_refcounted_h = type { i32, %union.anon }
%union.anon = type { i32 }
%union.anon.0 = type { i32 }
%union.anon.1 = type { ptr }
%struct._zend_stack = type { i32, i32, i32, ptr }
%struct._zval_struct = type { %union._zend_value, %union.anon.3, %union.anon.6 }
%union._zend_value = type { i64 }
%union.anon.3 = type { i32 }
%union.anon.6 = type { i32 }
%struct._zend_string = type { %struct._zend_refcounted_h, i64, i64, [1 x i8] }

@compiler_globals = external global %struct._zend_compiler_globals, align 8
@.str.6 = private unnamed_addr constant [1 x i8] zeroinitializer, align 1
@zend_empty_string = external global ptr, align 8

; Function Attrs: nounwind uwtable
define internal void @zend_ini_init_string(ptr noundef %0) #0 {
  %2 = alloca ptr, align 8
  %3 = alloca i32, align 4
  %4 = alloca i64, align 8
  %5 = alloca i8, align 1
  %6 = alloca ptr, align 8
  %7 = alloca ptr, align 8
  %8 = alloca i64, align 8
  %9 = alloca i8, align 1
  %10 = alloca ptr, align 8
  %11 = alloca ptr, align 8
  %12 = alloca ptr, align 8
  %13 = alloca ptr, align 8
  %14 = alloca ptr, align 8
  %15 = alloca ptr, align 8
  store ptr %0, ptr %11, align 8
  %16 = load i8, ptr getelementptr inbounds (%struct._zend_compiler_globals, ptr @compiler_globals, i32 0, i32 12), align 4
  %17 = trunc i8 %16 to i1
  br i1 %17, label %18, label %475

18:                                               ; preds = %1
  br label %19

19:                                               ; preds = %18
  br label %20

20:                                               ; preds = %19
  br label %21

21:                                               ; preds = %20
  %22 = load ptr, ptr %11, align 8
  store ptr %22, ptr %12, align 8
  store ptr @.str.6, ptr %7, align 8
  store i64 0, ptr %8, align 8
  store i8 1, ptr %9, align 1
  %23 = load i64, ptr %8, align 8
  %24 = load i8, ptr %9, align 1
  %25 = trunc i8 %24 to i1
  store i64 %23, ptr %4, align 8
  %26 = zext i1 %25 to i8
  store i8 %26, ptr %5, align 1
  %27 = load i8, ptr %5, align 1
  %28 = trunc i8 %27 to i1
  br i1 %28, label %29, label %37

29:                                               ; preds = %21
  %30 = load i64, ptr %4, align 8
  %31 = add i64 24, %30
  %32 = add i64 %31, 1
  %33 = add i64 %32, 8
  %34 = sub i64 %33, 1
  %35 = and i64 %34, -8
  %36 = call noalias ptr @__zend_malloc(i64 noundef %35) #10
  br label %441

37:                                               ; preds = %21
  %38 = load i64, ptr %4, align 8
  %39 = add i64 24, %38
  %40 = add i64 %39, 1
  %41 = add i64 %40, 8
  %42 = sub i64 %41, 1
  %43 = and i64 %42, -8
  %44 = call i1 @llvm.is.constant.i64(i64 %43)
  br i1 %44, label %45, label %431

45:                                               ; preds = %37
  %46 = load i64, ptr %4, align 8
  %47 = add i64 24, %46
  %48 = add i64 %47, 1
  %49 = add i64 %48, 8
  %50 = sub i64 %49, 1
  %51 = and i64 %50, -8
  %52 = icmp ule i64 %51, 8
  br i1 %52, label %53, label %55

53:                                               ; preds = %45
  %54 = call noalias ptr @_emalloc_8() #11
  br label %429

55:                                               ; preds = %45
  %56 = load i64, ptr %4, align 8
  %57 = add i64 24, %56
  %58 = add i64 %57, 1
  %59 = add i64 %58, 8
  %60 = sub i64 %59, 1
  %61 = and i64 %60, -8
  %62 = icmp ule i64 %61, 16
  br i1 %62, label %63, label %65

63:                                               ; preds = %55
  %64 = call noalias ptr @_emalloc_16() #11
  br label %427

65:                                               ; preds = %55
  %66 = load i64, ptr %4, align 8
  %67 = add i64 24, %66
  %68 = add i64 %67, 1
  %69 = add i64 %68, 8
  %70 = sub i64 %69, 1
  %71 = and i64 %70, -8
  %72 = icmp ule i64 %71, 24
  br i1 %72, label %73, label %75

73:                                               ; preds = %65
  %74 = call noalias ptr @_emalloc_24() #11
  br label %425

75:                                               ; preds = %65
  %76 = load i64, ptr %4, align 8
  %77 = add i64 24, %76
  %78 = add i64 %77, 1
  %79 = add i64 %78, 8
  %80 = sub i64 %79, 1
  %81 = and i64 %80, -8
  %82 = icmp ule i64 %81, 32
  br i1 %82, label %83, label %85

83:                                               ; preds = %75
  %84 = call noalias ptr @_emalloc_32() #11
  br label %423

85:                                               ; preds = %75
  %86 = load i64, ptr %4, align 8
  %87 = add i64 24, %86
  %88 = add i64 %87, 1
  %89 = add i64 %88, 8
  %90 = sub i64 %89, 1
  %91 = and i64 %90, -8
  %92 = icmp ule i64 %91, 40
  br i1 %92, label %93, label %95

93:                                               ; preds = %85
  %94 = call noalias ptr @_emalloc_40() #11
  br label %421

95:                                               ; preds = %85
  %96 = load i64, ptr %4, align 8
  %97 = add i64 24, %96
  %98 = add i64 %97, 1
  %99 = add i64 %98, 8
  %100 = sub i64 %99, 1
  %101 = and i64 %100, -8
  %102 = icmp ule i64 %101, 48
  br i1 %102, label %103, label %105

103:                                              ; preds = %95
  %104 = call noalias ptr @_emalloc_48() #11
  br label %419

105:                                              ; preds = %95
  %106 = load i64, ptr %4, align 8
  %107 = add i64 24, %106
  %108 = add i64 %107, 1
  %109 = add i64 %108, 8
  %110 = sub i64 %109, 1
  %111 = and i64 %110, -8
  %112 = icmp ule i64 %111, 56
  br i1 %112, label %113, label %115

113:                                              ; preds = %105
  %114 = call noalias ptr @_emalloc_56() #11
  br label %417

115:                                              ; preds = %105
  %116 = load i64, ptr %4, align 8
  %117 = add i64 24, %116
  %118 = add i64 %117, 1
  %119 = add i64 %118, 8
  %120 = sub i64 %119, 1
  %121 = and i64 %120, -8
  %122 = icmp ule i64 %121, 64
  br i1 %122, label %123, label %125

123:                                              ; preds = %115
  %124 = call noalias ptr @_emalloc_64() #11
  br label %415

125:                                              ; preds = %115
  %126 = load i64, ptr %4, align 8
  %127 = add i64 24, %126
  %128 = add i64 %127, 1
  %129 = add i64 %128, 8
  %130 = sub i64 %129, 1
  %131 = and i64 %130, -8
  %132 = icmp ule i64 %131, 80
  br i1 %132, label %133, label %135

133:                                              ; preds = %125
  %134 = call noalias ptr @_emalloc_80() #11
  br label %413

135:                                              ; preds = %125
  %136 = load i64, ptr %4, align 8
  %137 = add i64 24, %136
  %138 = add i64 %137, 1
  %139 = add i64 %138, 8
  %140 = sub i64 %139, 1
  %141 = and i64 %140, -8
  %142 = icmp ule i64 %141, 96
  br i1 %142, label %143, label %145

143:                                              ; preds = %135
  %144 = call noalias ptr @_emalloc_96() #11
  br label %411

145:                                              ; preds = %135
  %146 = load i64, ptr %4, align 8
  %147 = add i64 24, %146
  %148 = add i64 %147, 1
  %149 = add i64 %148, 8
  %150 = sub i64 %149, 1
  %151 = and i64 %150, -8
  %152 = icmp ule i64 %151, 112
  br i1 %152, label %153, label %155

153:                                              ; preds = %145
  %154 = call noalias ptr @_emalloc_112() #11
  br label %409

155:                                              ; preds = %145
  %156 = load i64, ptr %4, align 8
  %157 = add i64 24, %156
  %158 = add i64 %157, 1
  %159 = add i64 %158, 8
  %160 = sub i64 %159, 1
  %161 = and i64 %160, -8
  %162 = icmp ule i64 %161, 128
  br i1 %162, label %163, label %165

163:                                              ; preds = %155
  %164 = call noalias ptr @_emalloc_128() #11
  br label %407

165:                                              ; preds = %155
  %166 = load i64, ptr %4, align 8
  %167 = add i64 24, %166
  %168 = add i64 %167, 1
  %169 = add i64 %168, 8
  %170 = sub i64 %169, 1
  %171 = and i64 %170, -8
  %172 = icmp ule i64 %171, 160
  br i1 %172, label %173, label %175

173:                                              ; preds = %165
  %174 = call noalias ptr @_emalloc_160() #11
  br label %405

175:                                              ; preds = %165
  %176 = load i64, ptr %4, align 8
  %177 = add i64 24, %176
  %178 = add i64 %177, 1
  %179 = add i64 %178, 8
  %180 = sub i64 %179, 1
  %181 = and i64 %180, -8
  %182 = icmp ule i64 %181, 192
  br i1 %182, label %183, label %185

183:                                              ; preds = %175
  %184 = call noalias ptr @_emalloc_192() #11
  br label %403

185:                                              ; preds = %175
  %186 = load i64, ptr %4, align 8
  %187 = add i64 24, %186
  %188 = add i64 %187, 1
  %189 = add i64 %188, 8
  %190 = sub i64 %189, 1
  %191 = and i64 %190, -8
  %192 = icmp ule i64 %191, 224
  br i1 %192, label %193, label %195

193:                                              ; preds = %185
  %194 = call noalias ptr @_emalloc_224() #11
  br label %401

195:                                              ; preds = %185
  %196 = load i64, ptr %4, align 8
  %197 = add i64 24, %196
  %198 = add i64 %197, 1
  %199 = add i64 %198, 8
  %200 = sub i64 %199, 1
  %201 = and i64 %200, -8
  %202 = icmp ule i64 %201, 256
  br i1 %202, label %203, label %205

203:                                              ; preds = %195
  %204 = call noalias ptr @_emalloc_256() #11
  br label %399

205:                                              ; preds = %195
  %206 = load i64, ptr %4, align 8
  %207 = add i64 24, %206
  %208 = add i64 %207, 1
  %209 = add i64 %208, 8
  %210 = sub i64 %209, 1
  %211 = and i64 %210, -8
  %212 = icmp ule i64 %211, 320
  br i1 %212, label %213, label %215

213:                                              ; preds = %205
  %214 = call noalias ptr @_emalloc_320() #11
  br label %397

215:                                              ; preds = %205
  %216 = load i64, ptr %4, align 8
  %217 = add i64 24, %216
  %218 = add i64 %217, 1
  %219 = add i64 %218, 8
  %220 = sub i64 %219, 1
  %221 = and i64 %220, -8
  %222 = icmp ule i64 %221, 384
  br i1 %222, label %223, label %225

223:                                              ; preds = %215
  %224 = call noalias ptr @_emalloc_384() #11
  br label %395

225:                                              ; preds = %215
  %226 = load i64, ptr %4, align 8
  %227 = add i64 24, %226
  %228 = add i64 %227, 1
  %229 = add i64 %228, 8
  %230 = sub i64 %229, 1
  %231 = and i64 %230, -8
  %232 = icmp ule i64 %231, 448
  br i1 %232, label %233, label %235

233:                                              ; preds = %225
  %234 = call noalias ptr @_emalloc_448() #11
  br label %393

235:                                              ; preds = %225
  %236 = load i64, ptr %4, align 8
  %237 = add i64 24, %236
  %238 = add i64 %237, 1
  %239 = add i64 %238, 8
  %240 = sub i64 %239, 1
  %241 = and i64 %240, -8
  %242 = icmp ule i64 %241, 512
  br i1 %242, label %243, label %245

243:                                              ; preds = %235
  %244 = call noalias ptr @_emalloc_512() #11
  br label %391

245:                                              ; preds = %235
  %246 = load i64, ptr %4, align 8
  %247 = add i64 24, %246
  %248 = add i64 %247, 1
  %249 = add i64 %248, 8
  %250 = sub i64 %249, 1
  %251 = and i64 %250, -8
  %252 = icmp ule i64 %251, 640
  br i1 %252, label %253, label %255

253:                                              ; preds = %245
  %254 = call noalias ptr @_emalloc_640() #11
  br label %389

255:                                              ; preds = %245
  %256 = load i64, ptr %4, align 8
  %257 = add i64 24, %256
  %258 = add i64 %257, 1
  %259 = add i64 %258, 8
  %260 = sub i64 %259, 1
  %261 = and i64 %260, -8
  %262 = icmp ule i64 %261, 768
  br i1 %262, label %263, label %265

263:                                              ; preds = %255
  %264 = call noalias ptr @_emalloc_768() #11
  br label %387

265:                                              ; preds = %255
  %266 = load i64, ptr %4, align 8
  %267 = add i64 24, %266
  %268 = add i64 %267, 1
  %269 = add i64 %268, 8
  %270 = sub i64 %269, 1
  %271 = and i64 %270, -8
  %272 = icmp ule i64 %271, 896
  br i1 %272, label %273, label %275

273:                                              ; preds = %265
  %274 = call noalias ptr @_emalloc_896() #11
  br label %385

275:                                              ; preds = %265
  %276 = load i64, ptr %4, align 8
  %277 = add i64 24, %276
  %278 = add i64 %277, 1
  %279 = add i64 %278, 8
  %280 = sub i64 %279, 1
  %281 = and i64 %280, -8
  %282 = icmp ule i64 %281, 1024
  br i1 %282, label %283, label %285

283:                                              ; preds = %275
  %284 = call noalias ptr @_emalloc_1024() #11
  br label %383

285:                                              ; preds = %275
  %286 = load i64, ptr %4, align 8
  %287 = add i64 24, %286
  %288 = add i64 %287, 1
  %289 = add i64 %288, 8
  %290 = sub i64 %289, 1
  %291 = and i64 %290, -8
  %292 = icmp ule i64 %291, 1280
  br i1 %292, label %293, label %295

293:                                              ; preds = %285
  %294 = call noalias ptr @_emalloc_1280() #11
  br label %381

295:                                              ; preds = %285
  %296 = load i64, ptr %4, align 8
  %297 = add i64 24, %296
  %298 = add i64 %297, 1
  %299 = add i64 %298, 8
  %300 = sub i64 %299, 1
  %301 = and i64 %300, -8
  %302 = icmp ule i64 %301, 1536
  br i1 %302, label %303, label %305

303:                                              ; preds = %295
  %304 = call noalias ptr @_emalloc_1536() #11
  br label %379

305:                                              ; preds = %295
  %306 = load i64, ptr %4, align 8
  %307 = add i64 24, %306
  %308 = add i64 %307, 1
  %309 = add i64 %308, 8
  %310 = sub i64 %309, 1
  %311 = and i64 %310, -8
  %312 = icmp ule i64 %311, 1792
  br i1 %312, label %313, label %315

313:                                              ; preds = %305
  %314 = call noalias ptr @_emalloc_1792() #11
  br label %377

315:                                              ; preds = %305
  %316 = load i64, ptr %4, align 8
  %317 = add i64 24, %316
  %318 = add i64 %317, 1
  %319 = add i64 %318, 8
  %320 = sub i64 %319, 1
  %321 = and i64 %320, -8
  %322 = icmp ule i64 %321, 2048
  br i1 %322, label %323, label %325

323:                                              ; preds = %315
  %324 = call noalias ptr @_emalloc_2048() #11
  br label %375

325:                                              ; preds = %315
  %326 = load i64, ptr %4, align 8
  %327 = add i64 24, %326
  %328 = add i64 %327, 1
  %329 = add i64 %328, 8
  %330 = sub i64 %329, 1
  %331 = and i64 %330, -8
  %332 = icmp ule i64 %331, 2560
  br i1 %332, label %333, label %335

333:                                              ; preds = %325
  %334 = call noalias ptr @_emalloc_2560() #11
  br label %373

335:                                              ; preds = %325
  %336 = load i64, ptr %4, align 8
  %337 = add i64 24, %336
  %338 = add i64 %337, 1
  %339 = add i64 %338, 8
  %340 = sub i64 %339, 1
  %341 = and i64 %340, -8
  %342 = icmp ule i64 %341, 3072
  br i1 %342, label %343, label %345

343:                                              ; preds = %335
  %344 = call noalias ptr @_emalloc_3072() #11
  br label %371

345:                                              ; preds = %335
  %346 = load i64, ptr %4, align 8
  %347 = add i64 24, %346
  %348 = add i64 %347, 1
  %349 = add i64 %348, 8
  %350 = sub i64 %349, 1
  %351 = and i64 %350, -8
  %352 = icmp ule i64 %351, 2093056
  br i1 %352, label %353, label %361

353:                                              ; preds = %345
  %354 = load i64, ptr %4, align 8
  %355 = add i64 24, %354
  %356 = add i64 %355, 1
  %357 = add i64 %356, 8
  %358 = sub i64 %357, 1
  %359 = and i64 %358, -8
  %360 = call noalias ptr @_emalloc_large(i64 noundef %359) #10
  br label %369

361:                                              ; preds = %345
  %362 = load i64, ptr %4, align 8
  %363 = add i64 24, %362
  %364 = add i64 %363, 1
  %365 = add i64 %364, 8
  %366 = sub i64 %365, 1
  %367 = and i64 %366, -8
  %368 = call noalias ptr @_emalloc_huge(i64 noundef %367) #10
  br label %369

369:                                              ; preds = %361, %353
  %370 = phi ptr [ %360, %353 ], [ %368, %361 ]
  br label %371

371:                                              ; preds = %369, %343
  %372 = phi ptr [ %344, %343 ], [ %370, %369 ]
  br label %373

373:                                              ; preds = %371, %333
  %374 = phi ptr [ %334, %333 ], [ %372, %371 ]
  br label %375

375:                                              ; preds = %373, %323
  %376 = phi ptr [ %324, %323 ], [ %374, %373 ]
  br label %377

377:                                              ; preds = %375, %313
  %378 = phi ptr [ %314, %313 ], [ %376, %375 ]
  br label %379

379:                                              ; preds = %377, %303
  %380 = phi ptr [ %304, %303 ], [ %378, %377 ]
  br label %381

381:                                              ; preds = %379, %293
  %382 = phi ptr [ %294, %293 ], [ %380, %379 ]
  br label %383

383:                                              ; preds = %381, %283
  %384 = phi ptr [ %284, %283 ], [ %382, %381 ]
  br label %385

385:                                              ; preds = %383, %273
  %386 = phi ptr [ %274, %273 ], [ %384, %383 ]
  br label %387

387:                                              ; preds = %385, %263
  %388 = phi ptr [ %264, %263 ], [ %386, %385 ]
  br label %389

389:                                              ; preds = %387, %253
  %390 = phi ptr [ %254, %253 ], [ %388, %387 ]
  br label %391

391:                                              ; preds = %389, %243
  %392 = phi ptr [ %244, %243 ], [ %390, %389 ]
  br label %393

393:                                              ; preds = %391, %233
  %394 = phi ptr [ %234, %233 ], [ %392, %391 ]
  br label %395

395:                                              ; preds = %393, %223
  %396 = phi ptr [ %224, %223 ], [ %394, %393 ]
  br label %397

397:                                              ; preds = %395, %213
  %398 = phi ptr [ %214, %213 ], [ %396, %395 ]
  br label %399

399:                                              ; preds = %397, %203
  %400 = phi ptr [ %204, %203 ], [ %398, %397 ]
  br label %401

401:                                              ; preds = %399, %193
  %402 = phi ptr [ %194, %193 ], [ %400, %399 ]
  br label %403

403:                                              ; preds = %401, %183
  %404 = phi ptr [ %184, %183 ], [ %402, %401 ]
  br label %405

405:                                              ; preds = %403, %173
  %406 = phi ptr [ %174, %173 ], [ %404, %403 ]
  br label %407

407:                                              ; preds = %405, %163
  %408 = phi ptr [ %164, %163 ], [ %406, %405 ]
  br label %409

409:                                              ; preds = %407, %153
  %410 = phi ptr [ %154, %153 ], [ %408, %407 ]
  br label %411

411:                                              ; preds = %409, %143
  %412 = phi ptr [ %144, %143 ], [ %410, %409 ]
  br label %413

413:                                              ; preds = %411, %133
  %414 = phi ptr [ %134, %133 ], [ %412, %411 ]
  br label %415

415:                                              ; preds = %413, %123
  %416 = phi ptr [ %124, %123 ], [ %414, %413 ]
  br label %417

417:                                              ; preds = %415, %113
  %418 = phi ptr [ %114, %113 ], [ %416, %415 ]
  br label %419

419:                                              ; preds = %417, %103
  %420 = phi ptr [ %104, %103 ], [ %418, %417 ]
  br label %421

421:                                              ; preds = %419, %93
  %422 = phi ptr [ %94, %93 ], [ %420, %419 ]
  br label %423

423:                                              ; preds = %421, %83
  %424 = phi ptr [ %84, %83 ], [ %422, %421 ]
  br label %425

425:                                              ; preds = %423, %73
  %426 = phi ptr [ %74, %73 ], [ %424, %423 ]
  br label %427

427:                                              ; preds = %425, %63
  %428 = phi ptr [ %64, %63 ], [ %426, %425 ]
  br label %429

429:                                              ; preds = %427, %53
  %430 = phi ptr [ %54, %53 ], [ %428, %427 ]
  br label %439

431:                                              ; preds = %37
  %432 = load i64, ptr %4, align 8
  %433 = add i64 24, %432
  %434 = add i64 %433, 1
  %435 = add i64 %434, 8
  %436 = sub i64 %435, 1
  %437 = and i64 %436, -8
  %438 = call noalias ptr @_emalloc(i64 noundef %437) #10
  br label %439

439:                                              ; preds = %431, %429
  %440 = phi ptr [ %430, %429 ], [ %438, %431 ]
  br label %441

441:                                              ; preds = %439, %29
  %442 = phi ptr [ %36, %29 ], [ %440, %439 ]
  store ptr %442, ptr %6, align 8
  %443 = load ptr, ptr %6, align 8
  store ptr %443, ptr %2, align 8
  store i32 1, ptr %3, align 4
  %444 = load i32, ptr %3, align 4
  %445 = load ptr, ptr %2, align 8
  store i32 %444, ptr %445, align 4
  %446 = load i8, ptr %5, align 1
  %447 = trunc i8 %446 to i1
  %448 = select i1 %447, i32 128, i32 0
  %449 = or i32 22, %448
  %450 = load ptr, ptr %6, align 8
  %451 = getelementptr inbounds %struct._zend_refcounted_h, ptr %450, i32 0, i32 1
  store i32 %449, ptr %451, align 4
  %452 = load ptr, ptr %6, align 8
  %453 = getelementptr inbounds %struct._zend_string, ptr %452, i32 0, i32 1
  store i64 0, ptr %453, align 8
  %454 = load i64, ptr %4, align 8
  %455 = load ptr, ptr %6, align 8
  %456 = getelementptr inbounds %struct._zend_string, ptr %455, i32 0, i32 2
  store i64 %454, ptr %456, align 8
  %457 = load ptr, ptr %6, align 8
  store ptr %457, ptr %10, align 8
  %458 = load ptr, ptr %10, align 8
  %459 = getelementptr inbounds %struct._zend_string, ptr %458, i32 0, i32 3
  %460 = load ptr, ptr %7, align 8
  %461 = load i64, ptr %8, align 8
  call void @llvm.memcpy.p0.p0.i64(ptr align 8 %459, ptr align 1 %460, i64 %461, i1 false)
  %462 = load ptr, ptr %10, align 8
  %463 = getelementptr inbounds %struct._zend_string, ptr %462, i32 0, i32 3
  %464 = load i64, ptr %8, align 8
  %465 = getelementptr inbounds [1 x i8], ptr %463, i64 0, i64 %464
  store i8 0, ptr %465, align 1
  %466 = load ptr, ptr %10, align 8
  store ptr %466, ptr %13, align 8
  %467 = load ptr, ptr %13, align 8
  %468 = load ptr, ptr %12, align 8
  %469 = getelementptr inbounds %struct._zval_struct, ptr %468, i32 0, i32 0
  store ptr %467, ptr %469, align 8
  %470 = load ptr, ptr %12, align 8
  %471 = getelementptr inbounds %struct._zval_struct, ptr %470, i32 0, i32 1
  store i32 262, ptr %471, align 8
  br label %472

472:                                              ; preds = %441
  br label %473

473:                                              ; preds = %472
  br label %474

474:                                              ; preds = %473
  br label %487

475:                                              ; preds = %1
  br label %476

476:                                              ; preds = %475
  br label %477

477:                                              ; preds = %476
  %478 = load ptr, ptr %11, align 8
  store ptr %478, ptr %14, align 8
  %479 = load ptr, ptr @zend_empty_string, align 8
  store ptr %479, ptr %15, align 8
  %480 = load ptr, ptr %15, align 8
  %481 = load ptr, ptr %14, align 8
  %482 = getelementptr inbounds %struct._zval_struct, ptr %481, i32 0, i32 0
  store ptr %480, ptr %482, align 8
  %483 = load ptr, ptr %14, align 8
  %484 = getelementptr inbounds %struct._zval_struct, ptr %483, i32 0, i32 1
  store i32 6, ptr %484, align 8
  br label %485

485:                                              ; preds = %477
  br label %486

486:                                              ; preds = %485
  br label %487

487:                                              ; preds = %486, %474
  %488 = load ptr, ptr %11, align 8
  %489 = getelementptr inbounds %struct._zval_struct, ptr %488, i32 0, i32 2
  store i32 0, ptr %489, align 4
  ret void
}