; Function Attrs: nounwind uwtable
define internal fastcc void @zend_ini_init_string(ptr nocapture noundef writeonly %0) unnamed_addr #0 {
  %2 = load i8, ptr getelementptr inbounds (%struct._zend_compiler_globals, ptr @compiler_globals, i64 0, i32 12), align 4
  %3 = and i8 %2, 1
  %.not = icmp eq i8 %3, 0
  br i1 %.not, label %8, label %4

4:                                                ; preds = %1
  %5 = tail call noalias dereferenceable_or_null(32) ptr @__zend_malloc(i64 noundef 32) #18
  store i32 1, ptr %5, align 4
  %6 = getelementptr inbounds i8, ptr %5, i64 4
  store i32 150, ptr %6, align 4
  %7 = getelementptr inbounds i8, ptr %5, i64 8
  tail call void @llvm.memset.p0.i64(ptr noundef nonnull align 8 dereferenceable(17) %7, i8 0, i64 17, i1 false)
  br label %10

8:                                                ; preds = %1
  %9 = load ptr, ptr @zend_empty_string, align 8
  br label %10

10:                                               ; preds = %8, %4
  %.sink62 = phi ptr [ %9, %8 ], [ %5, %4 ]
  %.sink = phi i32 [ 6, %8 ], [ 262, %4 ]
  store ptr %.sink62, ptr %0, align 8
  %11 = getelementptr inbounds i8, ptr %0, i64 8
  store i32 %.sink, ptr %11, align 8
  %12 = getelementptr inbounds i8, ptr %0, i64 12
  store i32 0, ptr %12, align 4
  ret void
}